; Function Attrs: mustprogress uwtable
define void @_ZN5boost4urls8url_base12reserve_implEm(ptr noundef nonnull align 8 dereferenceable(216) %0, i64 noundef %1) local_unnamed_addr #10 align 2 personality ptr @__gxx_personality_v0 {
  %3 = alloca %"struct.boost::urls::url_base::op_t", align 8
  call void @llvm.lifetime.start.p0(i64 32, ptr nonnull %3) #30
  call void @_ZN5boost4urls8url_base4op_tC1ERS1_PNS_4core17basic_string_viewIcEES7_(ptr noundef nonnull align 8 dereferenceable(32) %3, ptr noundef nonnull align 8 dereferenceable(216) %0, ptr noundef null, ptr noundef null) #30
  %4 = load ptr, ptr %0, align 8, !tbaa !9
  %5 = getelementptr inbounds i8, ptr %4, i64 24
  %6 = load ptr, ptr %5, align 8
  invoke void %6(ptr noundef nonnull align 8 dereferenceable(216) %0, i64 noundef %1, ptr noundef nonnull align 8 dereferenceable(32) %3)
          to label %7 unwind label %15

7:                                                ; preds = %2
  %8 = getelementptr inbounds nuw i8, ptr %0, i64 200
  %9 = load ptr, ptr %8, align 8, !tbaa !16
  %.not = icmp eq ptr %9, null
  br i1 %.not, label %17, label %10

10:                                               ; preds = %7
  %11 = getelementptr inbounds i8, ptr %0, i64 192
  %12 = load ptr, ptr %11, align 8, !tbaa !24
  %13 = call noundef i64 @_ZNK5boost4urls6detail8url_impl6offsetEi(ptr noundef nonnull align 8 dereferenceable(171) %12, i32 noundef 7) #30
  %14 = getelementptr inbounds nuw i8, ptr %9, i64 %13
  store i8 0, ptr %14, align 1, !tbaa !25
  br label %17

15:                                               ; preds = %2
  %16 = landingpad { ptr, i32 }
          cleanup
  call void @_ZN5boost4urls8url_base4op_tD1Ev(ptr noundef nonnull align 8 dereferenceable(32) %3) #30
  call void @llvm.lifetime.end.p0(i64 32, ptr nonnull %3) #30
  resume { ptr, i32 } %16

17:                                               ; preds = %10, %7
  call void @_ZN5boost4urls8url_base4op_tD1Ev(ptr noundef nonnull align 8 dereferenceable(32) %3) #30
  call void @llvm.lifetime.end.p0(i64 32, ptr nonnull %3) #30
  ret void
}